target datalayout = "e-m:e-p270:32:32-p271:32:32-p272:64:64-i64:64-i128:128-f80:128-n8:16:32:64-S128"
target triple = "x86_64-pc-linux-gnu"

%struct.wtap_reader = type { i32, i64, i64, i32, %struct.wtap_reader_buf, %struct.wtap_reader_buf, i8, i64, i64, i32, i32, i8, i64, i8, i32, ptr, %struct.z_stream_s, i8, ptr, ptr, %struct.LZ4F_frameInfo_t, [19 x i8], ptr, ptr }
%struct.wtap_reader_buf = type { ptr, ptr, i32 }
%struct.z_stream_s = type { ptr, i32, i64, ptr, i32, i64, ptr, ptr, ptr, ptr, ptr, i32, i64, i64 }
%struct.LZ4F_frameInfo_t = type { i32, i32, i32, i32, i64, i32, i32 }
%struct.stat = type { i64, i64, i64, i32, i32, i32, i32, i64, i64, i64, i64, %struct.timespec, %struct.timespec, %struct.timespec, [3 x i64] }
%struct.timespec = type { i64, i64 }

@.str = private unnamed_addr constant [7 x i8] c"1.2.11\00", align 1

; Function Attrs: nounwind null_pointer_is_valid sspstrong uwtable
define internal void @buf_reset(ptr noundef %0) #3 {
  %2 = alloca ptr, align 8
  store ptr %0, ptr %2, align 8
  %3 = load ptr, ptr %2, align 8
  %4 = getelementptr inbounds nuw %struct.wtap_reader_buf, ptr %3, i32 0, i32 0
  %5 = load ptr, ptr %4, align 8
  %6 = load ptr, ptr %2, align 8
  %7 = getelementptr inbounds nuw %struct.wtap_reader_buf, ptr %6, i32 0, i32 1
  store ptr %5, ptr %7, align 8
  %8 = load ptr, ptr %2, align 8
  %9 = getelementptr inbounds nuw %struct.wtap_reader_buf, ptr %8, i32 0, i32 2
  store i32 0, ptr %9, align 8
  ret void
}

; Function Attrs: null_pointer_is_valid sspstrong uwtable
define internal void @gz_reset(ptr noundef %0) #0 {
  %2 = alloca ptr, align 8
  store ptr %0, ptr %2, align 8
  %3 = load ptr, ptr %2, align 8
  %4 = getelementptr inbounds nuw %struct.wtap_reader, ptr %3, i32 0, i32 5
  call void @buf_reset(ptr noundef %4)
  %5 = load ptr, ptr %2, align 8
  %6 = getelementptr inbounds nuw %struct.wtap_reader, ptr %5, i32 0, i32 6
  store i8 0, ptr %6, align 8
  %7 = load ptr, ptr %2, align 8
  %8 = getelementptr inbounds nuw %struct.wtap_reader, ptr %7, i32 0, i32 9
  store i32 0, ptr %8, align 8
  %9 = load ptr, ptr %2, align 8
  %10 = getelementptr inbounds nuw %struct.wtap_reader, ptr %9, i32 0, i32 13
  store i8 0, ptr %10, align 8
  %11 = load ptr, ptr %2, align 8
  %12 = getelementptr inbounds nuw %struct.wtap_reader, ptr %11, i32 0, i32 14
  store i32 0, ptr %12, align 4
  %13 = load ptr, ptr %2, align 8
  %14 = getelementptr inbounds nuw %struct.wtap_reader, ptr %13, i32 0, i32 15
  store ptr null, ptr %14, align 8
  %15 = load ptr, ptr %2, align 8
  %16 = getelementptr inbounds nuw %struct.wtap_reader, ptr %15, i32 0, i32 2
  store i64 0, ptr %16, align 8
  %17 = load ptr, ptr %2, align 8
  %18 = getelementptr inbounds nuw %struct.wtap_reader, ptr %17, i32 0, i32 4
  call void @buf_reset(ptr noundef %18)
  ret void
}

; Function Attrs: null_pointer_is_valid sspstrong uwtable
define hidden ptr @file_fdopen(i32 noundef %0) #0 {
  %2 = alloca ptr, align 8
  %3 = alloca i32, align 4
  %4 = alloca %struct.stat, align 8
  %5 = alloca i64, align 8
  %6 = alloca i32, align 4
  %7 = alloca ptr, align 8
  %8 = alloca i64, align 8
  %9 = alloca i32, align 4
  store i32 %0, ptr %3, align 4
  call void @llvm.lifetime.start.p0(i64 144, ptr %4) #14
  call void @llvm.lifetime.start.p0(i64 8, ptr %5) #14
  call void @llvm.lifetime.start.p0(i64 4, ptr %6) #14
  store i32 4096, ptr %6, align 4
  call void @llvm.lifetime.start.p0(i64 8, ptr %7) #14
  call void @llvm.lifetime.start.p0(i64 8, ptr %8) #14
  %10 = load i32, ptr %3, align 4
  %11 = icmp eq i32 %10, -1
  br i1 %11, label %12, label %13

12:                                               ; preds = %1
  store ptr null, ptr %2, align 8
  store i32 1, ptr %9, align 4
  br label %208

13:                                               ; preds = %1
  %14 = call noalias ptr @g_try_malloc0(i64 noundef 352) #16
  store ptr %14, ptr %7, align 8
  %15 = load ptr, ptr %7, align 8
  %16 = icmp eq ptr %15, null
  br i1 %16, label %17, label %18

17:                                               ; preds = %13
  store ptr null, ptr %2, align 8
  store i32 1, ptr %9, align 4
  br label %208

18:                                               ; preds = %13
  %19 = load ptr, ptr %7, align 8
  %20 = getelementptr inbounds nuw %struct.wtap_reader, ptr %19, i32 0, i32 23
  store ptr null, ptr %20, align 8
  %21 = load ptr, ptr %7, align 8
  %22 = getelementptr inbounds nuw %struct.wtap_reader, ptr %21, i32 0, i32 22
  store ptr null, ptr %22, align 8
  %23 = load i32, ptr %3, align 4
  %24 = load ptr, ptr %7, align 8
  %25 = getelementptr inbounds nuw %struct.wtap_reader, ptr %24, i32 0, i32 0
  store i32 %23, ptr %25, align 8
  %26 = load ptr, ptr %7, align 8
  %27 = getelementptr inbounds nuw %struct.wtap_reader, ptr %26, i32 0, i32 11
  store i8 0, ptr %27, align 8
  %28 = load ptr, ptr %7, align 8
  %29 = getelementptr inbounds nuw %struct.wtap_reader, ptr %28, i32 0, i32 10
  store i32 0, ptr %29, align 4
  %30 = load ptr, ptr %7, align 8
  %31 = getelementptr inbounds nuw %struct.wtap_reader, ptr %30, i32 0, i32 0
  %32 = load i32, ptr %31, align 8
  %33 = call i64 @lseek(i32 noundef %32, i64 noundef 0, i32 noundef 1) #14
  %34 = load ptr, ptr %7, align 8
  %35 = getelementptr inbounds nuw %struct.wtap_reader, ptr %34, i32 0, i32 7
  store i64 %33, ptr %35, align 8
  %36 = load ptr, ptr %7, align 8
  %37 = getelementptr inbounds nuw %struct.wtap_reader, ptr %36, i32 0, i32 7
  %38 = load i64, ptr %37, align 8
  %39 = icmp eq i64 %38, -1
  br i1 %39, label %40, label %43

40:                                               ; preds = %18
  %41 = load ptr, ptr %7, align 8
  %42 = getelementptr inbounds nuw %struct.wtap_reader, ptr %41, i32 0, i32 7
  store i64 0, ptr %42, align 8
  br label %43

43:                                               ; preds = %40, %18
  %44 = load ptr, ptr %7, align 8
  %45 = getelementptr inbounds nuw %struct.wtap_reader, ptr %44, i32 0, i32 7
  %46 = load i64, ptr %45, align 8
  %47 = load ptr, ptr %7, align 8
  %48 = getelementptr inbounds nuw %struct.wtap_reader, ptr %47, i32 0, i32 1
  store i64 %46, ptr %48, align 8
  %49 = load ptr, ptr %7, align 8
  call void @gz_reset(ptr noundef %49)
  %50 = load i32, ptr %3, align 4
  %51 = call i32 @fstat(i32 noundef %50, ptr noundef %4) #14
  %52 = icmp sge i32 %51, 0
  br i1 %52, label %53, label %63

53:                                               ; preds = %43
  %54 = getelementptr inbounds nuw %struct.stat, ptr %4, i32 0, i32 9
  %55 = load i64, ptr %54, align 8
  %56 = icmp sle i64 %55, 1073741824
  br i1 %56, label %57, label %61

57:                                               ; preds = %53
  %58 = getelementptr inbounds nuw %struct.stat, ptr %4, i32 0, i32 9
  %59 = load i64, ptr %58, align 8
  %60 = trunc i64 %59 to i32
  store i32 %60, ptr %6, align 4
  br label %62

61:                                               ; preds = %53
  store i32 1073741824, ptr %6, align 4
  br label %62

62:                                               ; preds = %61, %57
  br label %63

63:                                               ; preds = %62, %43
  %64 = call i64 @ZSTD_DStreamInSize()
  store i64 %64, ptr %5, align 8
  %65 = load i64, ptr %5, align 8
  %66 = load i32, ptr %6, align 4
  %67 = zext i32 %66 to i64
  %68 = icmp ugt i64 %65, %67
  br i1 %68, label %69, label %77

69:                                               ; preds = %63
  %70 = load i64, ptr %5, align 8
  %71 = icmp ule i64 %70, 1073741824
  br i1 %71, label %72, label %75

72:                                               ; preds = %69
  %73 = load i64, ptr %5, align 8
  %74 = trunc i64 %73 to i32
  store i32 %74, ptr %6, align 4
  br label %76

75:                                               ; preds = %69
  store i32 1073741824, ptr %6, align 4
  br label %76

76:                                               ; preds = %75, %72
  br label %77

77:                                               ; preds = %76, %63
  %78 = call i64 @ZSTD_DStreamOutSize()
  store i64 %78, ptr %5, align 8
  %79 = load i64, ptr %5, align 8
  %80 = load i32, ptr %6, align 4
  %81 = zext i32 %80 to i64
  %82 = icmp ugt i64 %79, %81
  br i1 %82, label %83, label %91

83:                                               ; preds = %77
  %84 = load i64, ptr %5, align 8
  %85 = icmp ule i64 %84, 1073741824
  br i1 %85, label %86, label %89

86:                                               ; preds = %83
  %87 = load i64, ptr %5, align 8
  %88 = trunc i64 %87 to i32
  store i32 %88, ptr %6, align 4
  br label %90

89:                                               ; preds = %83
  store i32 1073741824, ptr %6, align 4
  br label %90

90:                                               ; preds = %89, %86
  br label %91

91:                                               ; preds = %90, %77
  %92 = load i32, ptr %6, align 4
  %93 = icmp ugt i32 4194304, %92
  br i1 %93, label %94, label %95

94:                                               ; preds = %91
  store i32 4194304, ptr %6, align 4
  br label %95

95:                                               ; preds = %94, %91
  %96 = load i32, ptr %6, align 4
  %97 = zext i32 %96 to i64
  %98 = call noalias ptr @g_try_malloc(i64 noundef %97) #16
  %99 = load ptr, ptr %7, align 8
  %100 = getelementptr inbounds nuw %struct.wtap_reader, ptr %99, i32 0, i32 4
  %101 = getelementptr inbounds nuw %struct.wtap_reader_buf, ptr %100, i32 0, i32 0
  store ptr %98, ptr %101, align 8
  %102 = load ptr, ptr %7, align 8
  %103 = getelementptr inbounds nuw %struct.wtap_reader, ptr %102, i32 0, i32 4
  %104 = getelementptr inbounds nuw %struct.wtap_reader_buf, ptr %103, i32 0, i32 0
  %105 = load ptr, ptr %104, align 8
  %106 = load ptr, ptr %7, align 8
  %107 = getelementptr inbounds nuw %struct.wtap_reader, ptr %106, i32 0, i32 4
  %108 = getelementptr inbounds nuw %struct.wtap_reader_buf, ptr %107, i32 0, i32 1
  store ptr %105, ptr %108, align 8
  %109 = load ptr, ptr %7, align 8
  %110 = getelementptr inbounds nuw %struct.wtap_reader, ptr %109, i32 0, i32 4
  %111 = getelementptr inbounds nuw %struct.wtap_reader_buf, ptr %110, i32 0, i32 2
  store i32 0, ptr %111, align 8
  %112 = load i32, ptr %6, align 4
  %113 = shl i32 %112, 1
  %114 = zext i32 %113 to i64
  %115 = call noalias ptr @g_try_malloc(i64 noundef %114) #16
  %116 = load ptr, ptr %7, align 8
  %117 = getelementptr inbounds nuw %struct.wtap_reader, ptr %116, i32 0, i32 5
  %118 = getelementptr inbounds nuw %struct.wtap_reader_buf, ptr %117, i32 0, i32 0
  store ptr %115, ptr %118, align 8
  %119 = load ptr, ptr %7, align 8
  %120 = getelementptr inbounds nuw %struct.wtap_reader, ptr %119, i32 0, i32 5
  %121 = getelementptr inbounds nuw %struct.wtap_reader_buf, ptr %120, i32 0, i32 0
  %122 = load ptr, ptr %121, align 8
  %123 = load ptr, ptr %7, align 8
  %124 = getelementptr inbounds nuw %struct.wtap_reader, ptr %123, i32 0, i32 5
  %125 = getelementptr inbounds nuw %struct.wtap_reader_buf, ptr %124, i32 0, i32 1
  store ptr %122, ptr %125, align 8
  %126 = load ptr, ptr %7, align 8
  %127 = getelementptr inbounds nuw %struct.wtap_reader, ptr %126, i32 0, i32 5
  %128 = getelementptr inbounds nuw %struct.wtap_reader_buf, ptr %127, i32 0, i32 2
  store i32 0, ptr %128, align 8
  %129 = load i32, ptr %6, align 4
  %130 = load ptr, ptr %7, align 8
  %131 = getelementptr inbounds nuw %struct.wtap_reader, ptr %130, i32 0, i32 3
  store i32 %129, ptr %131, align 8
  %132 = load ptr, ptr %7, align 8
  %133 = getelementptr inbounds nuw %struct.wtap_reader, ptr %132, i32 0, i32 4
  %134 = getelementptr inbounds nuw %struct.wtap_reader_buf, ptr %133, i32 0, i32 0
  %135 = load ptr, ptr %134, align 8
  %136 = icmp eq ptr %135, null
  br i1 %136, label %143, label %137

137:                                              ; preds = %95
  %138 = load ptr, ptr %7, align 8
  %139 = getelementptr inbounds nuw %struct.wtap_reader, ptr %138, i32 0, i32 5
  %140 = getelementptr inbounds nuw %struct.wtap_reader_buf, ptr %139, i32 0, i32 0
  %141 = load ptr, ptr %140, align 8
  %142 = icmp eq ptr %141, null
  br i1 %142, label %143, label %144

143:                                              ; preds = %137, %95
  br label %186

144:                                              ; preds = %137
  %145 = load ptr, ptr %7, align 8
  %146 = getelementptr inbounds nuw %struct.wtap_reader, ptr %145, i32 0, i32 16
  %147 = getelementptr inbounds nuw %struct.z_stream_s, ptr %146, i32 0, i32 8
  store ptr null, ptr %147, align 8
  %148 = load ptr, ptr %7, align 8
  %149 = getelementptr inbounds nuw %struct.wtap_reader, ptr %148, i32 0, i32 16
  %150 = getelementptr inbounds nuw %struct.z_stream_s, ptr %149, i32 0, i32 9
  store ptr null, ptr %150, align 8
  %151 = load ptr, ptr %7, align 8
  %152 = getelementptr inbounds nuw %struct.wtap_reader, ptr %151, i32 0, i32 16
  %153 = getelementptr inbounds nuw %struct.z_stream_s, ptr %152, i32 0, i32 10
  store ptr null, ptr %153, align 8
  %154 = load ptr, ptr %7, align 8
  %155 = getelementptr inbounds nuw %struct.wtap_reader, ptr %154, i32 0, i32 16
  %156 = getelementptr inbounds nuw %struct.z_stream_s, ptr %155, i32 0, i32 1
  store i32 0, ptr %156, align 8
  %157 = load ptr, ptr %7, align 8
  %158 = getelementptr inbounds nuw %struct.wtap_reader, ptr %157, i32 0, i32 16
  %159 = getelementptr inbounds nuw %struct.z_stream_s, ptr %158, i32 0, i32 0
  store ptr null, ptr %159, align 8
  %160 = load ptr, ptr %7, align 8
  %161 = getelementptr inbounds nuw %struct.wtap_reader, ptr %160, i32 0, i32 16
  %162 = call i32 @inflateInit2_(ptr noundef %161, i32 noundef -15, ptr noundef @.str, i32 noundef 112)
  %163 = icmp ne i32 %162, 0
  br i1 %163, label %164, label %165

164:                                              ; preds = %144
  br label %186

165:                                              ; preds = %144
  %166 = load ptr, ptr %7, align 8
  %167 = getelementptr inbounds nuw %struct.wtap_reader, ptr %166, i32 0, i32 17
  store i8 0, ptr %167, align 8
  %168 = call ptr @ZSTD_createDCtx()
  %169 = load ptr, ptr %7, align 8
  %170 = getelementptr inbounds nuw %struct.wtap_reader, ptr %169, i32 0, i32 18
  store ptr %168, ptr %170, align 8
  %171 = load ptr, ptr %7, align 8
  %172 = getelementptr inbounds nuw %struct.wtap_reader, ptr %171, i32 0, i32 18
  %173 = load ptr, ptr %172, align 8
  %174 = icmp eq ptr %173, null
  br i1 %174, label %175, label %176

175:                                              ; preds = %165
  br label %186

176:                                              ; preds = %165
  %177 = load ptr, ptr %7, align 8
  %178 = getelementptr inbounds nuw %struct.wtap_reader, ptr %177, i32 0, i32 19
  %179 = call i64 @LZ4F_createDecompressionContext(ptr noundef %178, i32 noundef 100)
  store i64 %179, ptr %8, align 8
  %180 = load i64, ptr %8, align 8
  %181 = call i32 @LZ4F_isError(i64 noundef %180)
  %182 = icmp ne i32 %181, 0
  br i1 %182, label %183, label %184

183:                                              ; preds = %176
  br label %186

184:                                              ; preds = %176
  %185 = load ptr, ptr %7, align 8
  store ptr %185, ptr %2, align 8
  store i32 1, ptr %9, align 4
  br label %208

186:                                              ; preds = %183, %175, %164, %143
  %187 = load ptr, ptr %7, align 8
  %188 = getelementptr inbounds nuw %struct.wtap_reader, ptr %187, i32 0, i32 16
  %189 = call i32 @inflateEnd(ptr noundef %188)
  %190 = load ptr, ptr %7, align 8
  %191 = getelementptr inbounds nuw %struct.wtap_reader, ptr %190, i32 0, i32 18
  %192 = load ptr, ptr %191, align 8
  %193 = call i64 @ZSTD_freeDCtx(ptr noundef %192)
  %194 = load ptr, ptr %7, align 8
  %195 = getelementptr inbounds nuw %struct.wtap_reader, ptr %194, i32 0, i32 19
  %196 = load ptr, ptr %195, align 8
  %197 = call i64 @LZ4F_freeDecompressionContext(ptr noundef %196)
  %198 = load ptr, ptr %7, align 8
  %199 = getelementptr inbounds nuw %struct.wtap_reader, ptr %198, i32 0, i32 5
  %200 = getelementptr inbounds nuw %struct.wtap_reader_buf, ptr %199, i32 0, i32 0
  %201 = load ptr, ptr %200, align 8
  call void @g_free(ptr noundef %201)
  %202 = load ptr, ptr %7, align 8
  %203 = getelementptr inbounds nuw %struct.wtap_reader, ptr %202, i32 0, i32 4
  %204 = getelementptr inbounds nuw %struct.wtap_reader_buf, ptr %203, i32 0, i32 0
  %205 = load ptr, ptr %204, align 8
  call void @g_free(ptr noundef %205)
  %206 = load ptr, ptr %7, align 8
  call void @g_free(ptr noundef %206)
  %207 = call ptr @__errno_location() #17
  store i32 12, ptr %207, align 4
  store ptr null, ptr %2, align 8
  store i32 1, ptr %9, align 4
  br label %208

208:                                              ; preds = %186, %184, %17, %12
  call void @llvm.lifetime.end.p0(i64 8, ptr %8) #14
  call void @llvm.lifetime.end.p0(i64 8, ptr %7) #14
  call void @llvm.lifetime.end.p0(i64 4, ptr %6) #14
  call void @llvm.lifetime.end.p0(i64 8, ptr %5) #14
  call void @llvm.lifetime.end.p0(i64 144, ptr %4) #14
  %209 = load ptr, ptr %2, align 8
  ret ptr %209
}