; Function Attrs: null_pointer_is_valid sspstrong uwtable
define hidden noundef ptr @file_fdopen(i32 noundef %0) local_unnamed_addr #0 {
  %2 = alloca %struct.stat, align 8
  call void @llvm.lifetime.start.p0(i64 144, ptr nonnull %2) #21
  %3 = icmp eq i32 %0, -1
  br i1 %3, label %79, label %4

4:                                                ; preds = %1
  %5 = tail call noalias dereferenceable_or_null(352) ptr @g_try_malloc0(i64 noundef 352) #22
  %6 = icmp eq ptr %5, null
  br i1 %6, label %79, label %7

7:                                                ; preds = %4
  %8 = getelementptr inbounds nuw i8, ptr %5, i64 336
  tail call void @llvm.memset.p0.i64(ptr noundef nonnull align 8 dereferenceable(16) %8, i8 0, i64 16, i1 false)
  store i32 %0, ptr %5, align 8
  %9 = getelementptr inbounds nuw i8, ptr %5, i64 112
  store i8 0, ptr %9, align 8
  %10 = getelementptr inbounds nuw i8, ptr %5, i64 108
  store i32 0, ptr %10, align 4
  %11 = tail call i64 @lseek(i32 noundef %0, i64 noundef 0, i32 noundef 1) #21
  %12 = getelementptr inbounds nuw i8, ptr %5, i64 88
  %13 = icmp eq i64 %11, -1
  %spec.select = select i1 %13, i64 0, i64 %11
  store i64 %spec.select, ptr %12, align 8
  %14 = getelementptr inbounds nuw i8, ptr %5, i64 8
  store i64 %spec.select, ptr %14, align 8
  %15 = getelementptr inbounds nuw i8, ptr %5, i64 56
  %16 = load ptr, ptr %15, align 8
  %17 = getelementptr inbounds nuw i8, ptr %5, i64 64
  store ptr %16, ptr %17, align 8
  %18 = getelementptr inbounds nuw i8, ptr %5, i64 72
  store i32 0, ptr %18, align 8
  %19 = getelementptr inbounds nuw i8, ptr %5, i64 80
  store i8 0, ptr %19, align 8
  %20 = getelementptr inbounds nuw i8, ptr %5, i64 104
  store i32 0, ptr %20, align 8
  %21 = getelementptr inbounds nuw i8, ptr %5, i64 128
  store i8 0, ptr %21, align 8
  %22 = getelementptr inbounds nuw i8, ptr %5, i64 132
  store i32 0, ptr %22, align 4
  %23 = getelementptr inbounds nuw i8, ptr %5, i64 136
  store ptr null, ptr %23, align 8
  %24 = getelementptr inbounds nuw i8, ptr %5, i64 16
  store i64 0, ptr %24, align 8
  %25 = getelementptr inbounds nuw i8, ptr %5, i64 32
  %26 = load ptr, ptr %25, align 8
  %27 = getelementptr inbounds nuw i8, ptr %5, i64 40
  store ptr %26, ptr %27, align 8
  %28 = getelementptr inbounds nuw i8, ptr %5, i64 48
  store i32 0, ptr %28, align 8
  %29 = call i32 @fstat(i32 noundef %0, ptr noundef nonnull %2) #21
  %30 = icmp sgt i32 %29, -1
  %31 = getelementptr inbounds nuw i8, ptr %2, i64 56
  %32 = load i64, ptr %31, align 8
  %33 = icmp slt i64 %32, 1073741825
  %34 = trunc i64 %32 to i32
  %spec.select64 = select i1 %33, i32 %34, i32 1073741824
  %.057 = select i1 %30, i32 %spec.select64, i32 4096
  %35 = tail call i64 @ZSTD_DStreamInSize()
  %36 = zext i32 %.057 to i64
  %37 = icmp ugt i64 %35, %36
  %38 = icmp ult i64 %35, 1073741825
  %39 = trunc nuw nsw i64 %35 to i32
  %spec.select65 = select i1 %38, i32 %39, i32 1073741824
  %.1 = select i1 %37, i32 %spec.select65, i32 %.057
  %40 = tail call i64 @ZSTD_DStreamOutSize()
  %41 = zext i32 %.1 to i64
  %42 = icmp ugt i64 %40, %41
  %43 = icmp ult i64 %40, 1073741825
  %44 = trunc nuw nsw i64 %40 to i32
  %spec.select66 = select i1 %43, i32 %44, i32 1073741824
  %.2 = select i1 %42, i32 %spec.select66, i32 %.1
  %spec.store.select = tail call i32 @llvm.umax.i32(i32 %.2, i32 4194304)
  %45 = zext i32 %spec.store.select to i64
  %46 = tail call noalias ptr @g_try_malloc(i64 noundef %45) #22
  store ptr %46, ptr %25, align 8
  store ptr %46, ptr %27, align 8
  store i32 0, ptr %28, align 8
  %47 = shl i32 %spec.store.select, 1
  %48 = zext i32 %47 to i64
  %49 = tail call noalias ptr @g_try_malloc(i64 noundef %48) #22
  store ptr %49, ptr %15, align 8
  store ptr %49, ptr %17, align 8
  store i32 0, ptr %18, align 8
  %50 = getelementptr inbounds nuw i8, ptr %5, i64 24
  store i32 %spec.store.select, ptr %50, align 8
  %51 = icmp eq ptr %46, null
  %52 = icmp eq ptr %49, null
  %or.cond = select i1 %51, i1 true, i1 %52
  br i1 %or.cond, label %67, label %53

53:                                               ; preds = %7
  %54 = getelementptr inbounds nuw i8, ptr %5, i64 144
  %55 = getelementptr inbounds nuw i8, ptr %5, i64 208
  %56 = getelementptr inbounds nuw i8, ptr %5, i64 152
  store i32 0, ptr %56, align 8
  store ptr null, ptr %54, align 8
  tail call void @llvm.memset.p0.i64(ptr noundef nonnull align 8 dereferenceable(24) %55, i8 0, i64 24, i1 false)
  %57 = tail call i32 @inflateInit2_(ptr noundef nonnull %54, i32 noundef -15, ptr noundef nonnull @.str, i32 noundef 112)
  %.not = icmp eq i32 %57, 0
  br i1 %.not, label %58, label %67

58:                                               ; preds = %53
  %59 = getelementptr inbounds nuw i8, ptr %5, i64 256
  store i8 0, ptr %59, align 8
  %60 = tail call ptr @ZSTD_createDCtx()
  %61 = getelementptr inbounds nuw i8, ptr %5, i64 264
  store ptr %60, ptr %61, align 8
  %62 = icmp eq ptr %60, null
  br i1 %62, label %67, label %63

63:                                               ; preds = %58
  %64 = getelementptr inbounds nuw i8, ptr %5, i64 272
  %65 = tail call i64 @LZ4F_createDecompressionContext(ptr noundef nonnull %64, i32 noundef 100)
  %66 = tail call i32 @LZ4F_isError(i64 noundef %65)
  %.not63 = icmp eq i32 %66, 0
  br i1 %.not63, label %79, label %67

67:                                               ; preds = %63, %58, %53, %7
  %68 = getelementptr inbounds nuw i8, ptr %5, i64 144
  %69 = tail call i32 @inflateEnd(ptr noundef nonnull %68)
  %70 = getelementptr inbounds nuw i8, ptr %5, i64 264
  %71 = load ptr, ptr %70, align 8
  %72 = tail call i64 @ZSTD_freeDCtx(ptr noundef %71)
  %73 = getelementptr inbounds nuw i8, ptr %5, i64 272
  %74 = load ptr, ptr %73, align 8
  %75 = tail call i64 @LZ4F_freeDecompressionContext(ptr noundef %74)
  %76 = load ptr, ptr %15, align 8
  tail call void @g_free(ptr noundef %76)
  %77 = load ptr, ptr %25, align 8
  tail call void @g_free(ptr noundef %77)
  tail call void @g_free(ptr noundef nonnull %5)
  %78 = tail call ptr @__errno_location() #23
  store i32 12, ptr %78, align 4
  br label %79

79:                                               ; preds = %63, %4, %1, %67
  %.0 = phi ptr [ null, %67 ], [ null, %1 ], [ null, %4 ], [ %5, %63 ]
  call void @llvm.lifetime.end.p0(i64 144, ptr nonnull %2) #21
  ret ptr %.0
}